; Function Attrs: nounwind uwtable
define ptr @Dar_LibBuildBest(ptr noundef %0) local_unnamed_addr #0 {
  %2 = alloca i32, align 4
  store i32 4, ptr %2, align 4
  %3 = getelementptr inbounds nuw i8, ptr %0, i64 40
  %4 = load ptr, ptr %3, align 8
  %5 = getelementptr i8, ptr %4, i64 4
  %.val1011 = load i32, ptr %5, align 4
  %6 = icmp sgt i32 %.val1011, 0
  %.pre = load ptr, ptr @s_DarLib, align 8
  br i1 %6, label %.lr.ph, label %._crit_edge

.lr.ph:                                           ; preds = %1
  %7 = getelementptr inbounds nuw i8, ptr %.pre, i64 16096
  br label %8

8:                                                ; preds = %.lr.ph, %8
  %indvars.iv = phi i64 [ 0, %.lr.ph ], [ %indvars.iv.next, %8 ]
  %9 = phi ptr [ %4, %.lr.ph ], [ %15, %8 ]
  %10 = getelementptr i8, ptr %9, i64 8
  %.val9 = load ptr, ptr %10, align 8
  %11 = getelementptr inbounds nuw ptr, ptr %.val9, i64 %indvars.iv
  %12 = load ptr, ptr %11, align 8
  %13 = load ptr, ptr %7, align 8
  %14 = getelementptr inbounds nuw %struct.Dar_LibDat_t_, ptr %13, i64 %indvars.iv
  store ptr %12, ptr %14, align 8
  %indvars.iv.next = add nuw nsw i64 %indvars.iv, 1
  %15 = load ptr, ptr %3, align 8
  %16 = getelementptr i8, ptr %15, i64 4
  %.val10 = load i32, ptr %16, align 4
  %17 = sext i32 %.val10 to i64
  %18 = icmp slt i64 %indvars.iv.next, %17
  br i1 %18, label %8, label %._crit_edge, !llvm.loop !41

._crit_edge:                                      ; preds = %8, %1
  %19 = getelementptr inbounds nuw i8, ptr %0, i64 48
  %20 = load i32, ptr %19, align 8
  %.val8 = load ptr, ptr %.pre, align 8
  %21 = sext i32 %20 to i64
  %22 = getelementptr inbounds %struct.Dar_LibObj_t_, ptr %.val8, i64 %21
  call void @Dar_LibBuildClear_rec(ptr noundef %22, ptr noundef nonnull %2)
  %23 = load i32, ptr %19, align 8
  %.val = load ptr, ptr %.pre, align 8
  %24 = sext i32 %23 to i64
  %25 = getelementptr inbounds %struct.Dar_LibObj_t_, ptr %.val, i64 %24
  %26 = tail call ptr @Dar_LibBuildBest_rec(ptr noundef nonnull %0, ptr noundef %25)
  ret ptr %26
}